target datalayout = "e-m:e-p270:32:32-p271:32:32-p272:64:64-i64:64-i128:128-f80:128-n8:16:32:64-S128"
target triple = "x86_64-pc-linux-gnu"

%struct.AVFilterContext = type { ptr, ptr, ptr, ptr, ptr, i32, ptr, ptr, i32, ptr, ptr, i32, i32, ptr, ptr, ptr, ptr, i32, ptr, i32, i32 }
%struct.MixContext = type { ptr, ptr, ptr, i32, i32, i32, ptr, float, float, i32, i32, i32, i32, i32, i32, i32, i32, [4 x i32], [4 x i32], [4 x ptr], ptr, ptr, ptr, %struct.FFFrameSync }
%struct.FFFrameSync = type { ptr, ptr, i32, %struct.AVRational, i64, ptr, ptr, i32, i32, i8, i8, ptr, i32, i32, i32, i32 }
%struct.AVRational = type { i32, i32 }
%struct.AVFilterLink = type { ptr, ptr, ptr, ptr, i32, i32, i32, i32, %struct.AVRational, i32, i32, i32, %struct.AVChannelLayout, %struct.AVRational, ptr, i32, %struct.AVFilterFormatsConfig, %struct.AVFilterFormatsConfig }
%struct.AVChannelLayout = type { i32, i32, %union.anon.1, ptr }
%union.anon.1 = type { i64 }
%struct.AVFilterFormatsConfig = type { ptr, ptr, ptr, ptr, ptr }
%struct.ThreadData = type { ptr, ptr }
%struct.AVFrame = type { [8 x ptr], [8 x i32], ptr, i32, i32, i32, i32, i32, %struct.AVRational, i64, i64, %struct.AVRational, i32, ptr, i32, i32, [8 x ptr], ptr, i32, ptr, i32, i32, i32, i32, i32, i32, i32, i64, ptr, i32, ptr, ptr, i64, i64, i64, i64, ptr, %struct.AVChannelLayout, i64 }

; Function Attrs: nounwind uwtable
define internal i32 @tmix_filter_frame(ptr noundef %0, ptr noundef %1) #1 {
  %3 = alloca i32, align 4
  %4 = alloca ptr, align 8
  %5 = alloca ptr, align 8
  %6 = alloca ptr, align 8
  %7 = alloca ptr, align 8
  %8 = alloca ptr, align 8
  %9 = alloca %struct.ThreadData, align 8
  %10 = alloca ptr, align 8
  %11 = alloca i32, align 4
  store ptr %0, ptr %4, align 8, !tbaa !54
  store ptr %1, ptr %5, align 8, !tbaa !102
  call void @llvm.lifetime.start.p0(i64 8, ptr %6) #12
  %12 = load ptr, ptr %4, align 8, !tbaa !54
  %13 = getelementptr inbounds nuw %struct.AVFilterLink, ptr %12, i32 0, i32 2
  %14 = load ptr, ptr %13, align 8, !tbaa !162
  store ptr %14, ptr %6, align 8, !tbaa !4
  call void @llvm.lifetime.start.p0(i64 8, ptr %7) #12
  %15 = load ptr, ptr %6, align 8, !tbaa !4
  %16 = getelementptr inbounds nuw %struct.AVFilterContext, ptr %15, i32 0, i32 7
  %17 = load ptr, ptr %16, align 8, !tbaa !97
  %18 = getelementptr inbounds ptr, ptr %17, i64 0
  %19 = load ptr, ptr %18, align 8, !tbaa !54
  store ptr %19, ptr %7, align 8, !tbaa !54
  call void @llvm.lifetime.start.p0(i64 8, ptr %8) #12
  %20 = load ptr, ptr %6, align 8, !tbaa !4
  %21 = getelementptr inbounds nuw %struct.AVFilterContext, ptr %20, i32 0, i32 9
  %22 = load ptr, ptr %21, align 8, !tbaa !9
  store ptr %22, ptr %8, align 8, !tbaa !22
  call void @llvm.lifetime.start.p0(i64 16, ptr %9) #12
  call void @llvm.lifetime.start.p0(i64 8, ptr %10) #12
  %23 = load ptr, ptr %8, align 8, !tbaa !22
  %24 = getelementptr inbounds nuw %struct.MixContext, ptr %23, i32 0, i32 3
  %25 = load i32, ptr %24, align 8, !tbaa !39
  %26 = icmp eq i32 %25, 1
  br i1 %26, label %27, label %31

27:                                               ; preds = %2
  %28 = load ptr, ptr %7, align 8, !tbaa !54
  %29 = load ptr, ptr %5, align 8, !tbaa !102
  %30 = call i32 @ff_filter_frame(ptr noundef %28, ptr noundef %29)
  store i32 %30, ptr %3, align 4
  store i32 1, ptr %11, align 4
  br label %228

31:                                               ; preds = %2
  %32 = load ptr, ptr %8, align 8, !tbaa !22
  %33 = getelementptr inbounds nuw %struct.MixContext, ptr %32, i32 0, i32 11
  %34 = load i32, ptr %33, align 8, !tbaa !49
  %35 = load ptr, ptr %8, align 8, !tbaa !22
  %36 = getelementptr inbounds nuw %struct.MixContext, ptr %35, i32 0, i32 3
  %37 = load i32, ptr %36, align 8, !tbaa !39
  %38 = icmp slt i32 %34, %37
  br i1 %38, label %39, label %102

39:                                               ; preds = %31
  %40 = load ptr, ptr %5, align 8, !tbaa !102
  %41 = load ptr, ptr %8, align 8, !tbaa !22
  %42 = getelementptr inbounds nuw %struct.MixContext, ptr %41, i32 0, i32 22
  %43 = load ptr, ptr %42, align 8, !tbaa !40
  %44 = load ptr, ptr %8, align 8, !tbaa !22
  %45 = getelementptr inbounds nuw %struct.MixContext, ptr %44, i32 0, i32 11
  %46 = load i32, ptr %45, align 8, !tbaa !49
  %47 = sext i32 %46 to i64
  %48 = getelementptr inbounds ptr, ptr %43, i64 %47
  store ptr %40, ptr %48, align 8, !tbaa !102
  %49 = load ptr, ptr %8, align 8, !tbaa !22
  %50 = getelementptr inbounds nuw %struct.MixContext, ptr %49, i32 0, i32 11
  %51 = load i32, ptr %50, align 8, !tbaa !49
  %52 = add nsw i32 %51, 1
  store i32 %52, ptr %50, align 8, !tbaa !49
  %53 = load ptr, ptr %8, align 8, !tbaa !22
  %54 = getelementptr inbounds nuw %struct.MixContext, ptr %53, i32 0, i32 12
  %55 = load i32, ptr %54, align 4, !tbaa !117
  %56 = add nsw i32 %55, 1
  store i32 %56, ptr %54, align 4, !tbaa !117
  br label %57

57:                                               ; preds = %96, %39
  %58 = load ptr, ptr %8, align 8, !tbaa !22
  %59 = getelementptr inbounds nuw %struct.MixContext, ptr %58, i32 0, i32 11
  %60 = load i32, ptr %59, align 8, !tbaa !49
  %61 = load ptr, ptr %8, align 8, !tbaa !22
  %62 = getelementptr inbounds nuw %struct.MixContext, ptr %61, i32 0, i32 3
  %63 = load i32, ptr %62, align 8, !tbaa !39
  %64 = icmp slt i32 %60, %63
  br i1 %64, label %65, label %101

65:                                               ; preds = %57
  %66 = load ptr, ptr %8, align 8, !tbaa !22
  %67 = getelementptr inbounds nuw %struct.MixContext, ptr %66, i32 0, i32 22
  %68 = load ptr, ptr %67, align 8, !tbaa !40
  %69 = load ptr, ptr %8, align 8, !tbaa !22
  %70 = getelementptr inbounds nuw %struct.MixContext, ptr %69, i32 0, i32 11
  %71 = load i32, ptr %70, align 8, !tbaa !49
  %72 = sub nsw i32 %71, 1
  %73 = sext i32 %72 to i64
  %74 = getelementptr inbounds ptr, ptr %68, i64 %73
  %75 = load ptr, ptr %74, align 8, !tbaa !102
  %76 = call ptr @av_frame_clone(ptr noundef %75)
  %77 = load ptr, ptr %8, align 8, !tbaa !22
  %78 = getelementptr inbounds nuw %struct.MixContext, ptr %77, i32 0, i32 22
  %79 = load ptr, ptr %78, align 8, !tbaa !40
  %80 = load ptr, ptr %8, align 8, !tbaa !22
  %81 = getelementptr inbounds nuw %struct.MixContext, ptr %80, i32 0, i32 11
  %82 = load i32, ptr %81, align 8, !tbaa !49
  %83 = sext i32 %82 to i64
  %84 = getelementptr inbounds ptr, ptr %79, i64 %83
  store ptr %76, ptr %84, align 8, !tbaa !102
  %85 = load ptr, ptr %8, align 8, !tbaa !22
  %86 = getelementptr inbounds nuw %struct.MixContext, ptr %85, i32 0, i32 22
  %87 = load ptr, ptr %86, align 8, !tbaa !40
  %88 = load ptr, ptr %8, align 8, !tbaa !22
  %89 = getelementptr inbounds nuw %struct.MixContext, ptr %88, i32 0, i32 11
  %90 = load i32, ptr %89, align 8, !tbaa !49
  %91 = sext i32 %90 to i64
  %92 = getelementptr inbounds ptr, ptr %87, i64 %91
  %93 = load ptr, ptr %92, align 8, !tbaa !102
  %94 = icmp ne ptr %93, null
  br i1 %94, label %96, label %95

95:                                               ; preds = %65
  store i32 -12, ptr %3, align 4
  store i32 1, ptr %11, align 4
  br label %228

96:                                               ; preds = %65
  %97 = load ptr, ptr %8, align 8, !tbaa !22
  %98 = getelementptr inbounds nuw %struct.MixContext, ptr %97, i32 0, i32 11
  %99 = load i32, ptr %98, align 8, !tbaa !49
  %100 = add nsw i32 %99, 1
  store i32 %100, ptr %98, align 8, !tbaa !49
  br label %57, !llvm.loop !163

101:                                              ; preds = %57
  br label %152

102:                                              ; preds = %31
  %103 = load ptr, ptr %8, align 8, !tbaa !22
  %104 = getelementptr inbounds nuw %struct.MixContext, ptr %103, i32 0, i32 12
  %105 = load i32, ptr %104, align 4, !tbaa !117
  %106 = add nsw i32 %105, 1
  %107 = load ptr, ptr %8, align 8, !tbaa !22
  %108 = getelementptr inbounds nuw %struct.MixContext, ptr %107, i32 0, i32 3
  %109 = load i32, ptr %108, align 8, !tbaa !39
  %110 = icmp sgt i32 %106, %109
  br i1 %110, label %111, label %115

111:                                              ; preds = %102
  %112 = load ptr, ptr %8, align 8, !tbaa !22
  %113 = getelementptr inbounds nuw %struct.MixContext, ptr %112, i32 0, i32 3
  %114 = load i32, ptr %113, align 8, !tbaa !39
  br label %120

115:                                              ; preds = %102
  %116 = load ptr, ptr %8, align 8, !tbaa !22
  %117 = getelementptr inbounds nuw %struct.MixContext, ptr %116, i32 0, i32 12
  %118 = load i32, ptr %117, align 4, !tbaa !117
  %119 = add nsw i32 %118, 1
  br label %120

120:                                              ; preds = %115, %111
  %121 = phi i32 [ %114, %111 ], [ %119, %115 ]
  %122 = load ptr, ptr %8, align 8, !tbaa !22
  %123 = getelementptr inbounds nuw %struct.MixContext, ptr %122, i32 0, i32 12
  store i32 %121, ptr %123, align 4, !tbaa !117
  %124 = load ptr, ptr %8, align 8, !tbaa !22
  %125 = getelementptr inbounds nuw %struct.MixContext, ptr %124, i32 0, i32 22
  %126 = load ptr, ptr %125, align 8, !tbaa !40
  %127 = getelementptr inbounds ptr, ptr %126, i64 0
  call void @av_frame_free(ptr noundef %127)
  %128 = load ptr, ptr %8, align 8, !tbaa !22
  %129 = getelementptr inbounds nuw %struct.MixContext, ptr %128, i32 0, i32 22
  %130 = load ptr, ptr %129, align 8, !tbaa !40
  %131 = getelementptr inbounds ptr, ptr %130, i64 0
  %132 = load ptr, ptr %8, align 8, !tbaa !22
  %133 = getelementptr inbounds nuw %struct.MixContext, ptr %132, i32 0, i32 22
  %134 = load ptr, ptr %133, align 8, !tbaa !40
  %135 = getelementptr inbounds ptr, ptr %134, i64 1
  %136 = load ptr, ptr %8, align 8, !tbaa !22
  %137 = getelementptr inbounds nuw %struct.MixContext, ptr %136, i32 0, i32 3
  %138 = load i32, ptr %137, align 8, !tbaa !39
  %139 = sub nsw i32 %138, 1
  %140 = sext i32 %139 to i64
  %141 = mul i64 8, %140
  call void @llvm.memmove.p0.p0.i64(ptr align 8 %131, ptr align 8 %135, i64 %141, i1 false)
  %142 = load ptr, ptr %5, align 8, !tbaa !102
  %143 = load ptr, ptr %8, align 8, !tbaa !22
  %144 = getelementptr inbounds nuw %struct.MixContext, ptr %143, i32 0, i32 22
  %145 = load ptr, ptr %144, align 8, !tbaa !40
  %146 = load ptr, ptr %8, align 8, !tbaa !22
  %147 = getelementptr inbounds nuw %struct.MixContext, ptr %146, i32 0, i32 3
  %148 = load i32, ptr %147, align 8, !tbaa !39
  %149 = sub nsw i32 %148, 1
  %150 = sext i32 %149 to i64
  %151 = getelementptr inbounds ptr, ptr %145, i64 %150
  store ptr %142, ptr %151, align 8, !tbaa !102
  br label %152

152:                                              ; preds = %120, %101
  %153 = load ptr, ptr %6, align 8, !tbaa !4
  %154 = getelementptr inbounds nuw %struct.AVFilterContext, ptr %153, i32 0, i32 17
  %155 = load i32, ptr %154, align 8, !tbaa !101
  %156 = icmp ne i32 %155, 0
  br i1 %156, label %157, label %171

157:                                              ; preds = %152
  %158 = load ptr, ptr %8, align 8, !tbaa !22
  %159 = getelementptr inbounds nuw %struct.MixContext, ptr %158, i32 0, i32 22
  %160 = load ptr, ptr %159, align 8, !tbaa !40
  %161 = getelementptr inbounds ptr, ptr %160, i64 0
  %162 = load ptr, ptr %161, align 8, !tbaa !102
  %163 = call ptr @av_frame_clone(ptr noundef %162)
  store ptr %163, ptr %10, align 8, !tbaa !102
  %164 = load ptr, ptr %10, align 8, !tbaa !102
  %165 = icmp ne ptr %164, null
  br i1 %165, label %167, label %166

166:                                              ; preds = %157
  store i32 -12, ptr %3, align 4
  store i32 1, ptr %11, align 4
  br label %228

167:                                              ; preds = %157
  %168 = load ptr, ptr %7, align 8, !tbaa !54
  %169 = load ptr, ptr %10, align 8, !tbaa !102
  %170 = call i32 @ff_filter_frame(ptr noundef %168, ptr noundef %169)
  store i32 %170, ptr %3, align 4
  store i32 1, ptr %11, align 4
  br label %228

171:                                              ; preds = %152
  %172 = load ptr, ptr %7, align 8, !tbaa !54
  %173 = load ptr, ptr %7, align 8, !tbaa !54
  %174 = getelementptr inbounds nuw %struct.AVFilterLink, ptr %173, i32 0, i32 6
  %175 = load i32, ptr %174, align 8, !tbaa !68
  %176 = load ptr, ptr %7, align 8, !tbaa !54
  %177 = getelementptr inbounds nuw %struct.AVFilterLink, ptr %176, i32 0, i32 7
  %178 = load i32, ptr %177, align 4, !tbaa !67
  %179 = call ptr @ff_get_video_buffer(ptr noundef %172, i32 noundef %175, i32 noundef %178)
  store ptr %179, ptr %10, align 8, !tbaa !102
  %180 = load ptr, ptr %10, align 8, !tbaa !102
  %181 = icmp ne ptr %180, null
  br i1 %181, label %183, label %182

182:                                              ; preds = %171
  store i32 -12, ptr %3, align 4
  store i32 1, ptr %11, align 4
  br label %228

183:                                              ; preds = %171
  %184 = load ptr, ptr %8, align 8, !tbaa !22
  %185 = getelementptr inbounds nuw %struct.MixContext, ptr %184, i32 0, i32 22
  %186 = load ptr, ptr %185, align 8, !tbaa !40
  %187 = load ptr, ptr %8, align 8, !tbaa !22
  %188 = getelementptr inbounds nuw %struct.MixContext, ptr %187, i32 0, i32 11
  %189 = load i32, ptr %188, align 8, !tbaa !49
  %190 = sub nsw i32 %189, 1
  %191 = sext i32 %190 to i64
  %192 = getelementptr inbounds ptr, ptr %186, i64 %191
  %193 = load ptr, ptr %192, align 8, !tbaa !102
  %194 = getelementptr inbounds nuw %struct.AVFrame, ptr %193, i32 0, i32 9
  %195 = load i64, ptr %194, align 8, !tbaa !104
  %196 = load ptr, ptr %10, align 8, !tbaa !102
  %197 = getelementptr inbounds nuw %struct.AVFrame, ptr %196, i32 0, i32 9
  store i64 %195, ptr %197, align 8, !tbaa !104
  %198 = load ptr, ptr %10, align 8, !tbaa !102
  %199 = getelementptr inbounds nuw %struct.ThreadData, ptr %9, i32 0, i32 1
  store ptr %198, ptr %199, align 8, !tbaa !110
  %200 = load ptr, ptr %8, align 8, !tbaa !22
  %201 = getelementptr inbounds nuw %struct.MixContext, ptr %200, i32 0, i32 22
  %202 = load ptr, ptr %201, align 8, !tbaa !40
  %203 = getelementptr inbounds nuw %struct.ThreadData, ptr %9, i32 0, i32 0
  store ptr %202, ptr %203, align 8, !tbaa !108
  %204 = load ptr, ptr %6, align 8, !tbaa !4
  %205 = load ptr, ptr %8, align 8, !tbaa !22
  %206 = getelementptr inbounds nuw %struct.MixContext, ptr %205, i32 0, i32 18
  %207 = getelementptr inbounds [4 x i32], ptr %206, i64 0, i64 1
  %208 = load i32, ptr %207, align 4, !tbaa !42
  %209 = load ptr, ptr %8, align 8, !tbaa !22
  %210 = getelementptr inbounds nuw %struct.MixContext, ptr %209, i32 0, i32 4
  %211 = load i32, ptr %210, align 4, !tbaa !70
  %212 = icmp sgt i32 %208, %211
  br i1 %212, label %213, label %217

213:                                              ; preds = %183
  %214 = load ptr, ptr %8, align 8, !tbaa !22
  %215 = getelementptr inbounds nuw %struct.MixContext, ptr %214, i32 0, i32 4
  %216 = load i32, ptr %215, align 4, !tbaa !70
  br label %222

217:                                              ; preds = %183
  %218 = load ptr, ptr %8, align 8, !tbaa !22
  %219 = getelementptr inbounds nuw %struct.MixContext, ptr %218, i32 0, i32 18
  %220 = getelementptr inbounds [4 x i32], ptr %219, i64 0, i64 1
  %221 = load i32, ptr %220, align 4, !tbaa !42
  br label %222

222:                                              ; preds = %217, %213
  %223 = phi i32 [ %216, %213 ], [ %221, %217 ]
  %224 = call i32 @ff_filter_execute(ptr noundef %204, ptr noundef @mix_frames, ptr noundef %9, ptr noundef null, i32 noundef %223)
  %225 = load ptr, ptr %7, align 8, !tbaa !54
  %226 = load ptr, ptr %10, align 8, !tbaa !102
  %227 = call i32 @ff_filter_frame(ptr noundef %225, ptr noundef %226)
  store i32 %227, ptr %3, align 4
  store i32 1, ptr %11, align 4
  br label %228

228:                                              ; preds = %222, %182, %167, %166, %95, %27
  call void @llvm.lifetime.end.p0(i64 8, ptr %10) #12
  call void @llvm.lifetime.end.p0(i64 16, ptr %9) #12
  call void @llvm.lifetime.end.p0(i64 8, ptr %8) #12
  call void @llvm.lifetime.end.p0(i64 8, ptr %7) #12
  call void @llvm.lifetime.end.p0(i64 8, ptr %6) #12
  %229 = load i32, ptr %3, align 4
  ret i32 %229
}