; Function Attrs: nounwind uwtable
define internal i32 @tmix_filter_frame(ptr noundef readonly captures(none) %0, ptr noundef %1) #1 {
  %3 = alloca %struct.ThreadData, align 8
  %4 = getelementptr inbounds nuw i8, ptr %0, i64 16
  %5 = load ptr, ptr %4, align 8, !tbaa !140
  %6 = getelementptr inbounds nuw i8, ptr %5, i64 56
  %7 = load ptr, ptr %6, align 8, !tbaa !85
  %8 = load ptr, ptr %7, align 8, !tbaa !54
  %9 = getelementptr inbounds nuw i8, ptr %5, i64 72
  %10 = load ptr, ptr %9, align 8, !tbaa !4
  call void @llvm.lifetime.start.p0(i64 16, ptr nonnull %3) #12
  %11 = getelementptr inbounds nuw i8, ptr %10, i64 24
  %12 = load i32, ptr %11, align 8, !tbaa !36
  %13 = icmp eq i32 %12, 1
  br i1 %13, label %14, label %16

14:                                               ; preds = %2
  %15 = tail call i32 @ff_filter_frame(ptr noundef %8, ptr noundef %1) #12
  br label %.loopexit67

16:                                               ; preds = %2
  %17 = getelementptr inbounds nuw i8, ptr %10, i64 64
  %18 = load i32, ptr %17, align 8, !tbaa !43
  %19 = icmp slt i32 %18, %12
  br i1 %19, label %20, label %45

20:                                               ; preds = %16
  %21 = getelementptr inbounds nuw i8, ptr %10, i64 168
  %22 = load ptr, ptr %21, align 8, !tbaa !37
  %23 = sext i32 %18 to i64
  %24 = getelementptr inbounds ptr, ptr %22, i64 %23
  store ptr %1, ptr %24, align 8, !tbaa !89
  %25 = add nsw i32 %18, 1
  store i32 %25, ptr %17, align 8, !tbaa !43
  %26 = getelementptr inbounds nuw i8, ptr %10, i64 68
  %27 = load i32, ptr %26, align 4, !tbaa !98
  %28 = add nsw i32 %27, 1
  store i32 %28, ptr %26, align 4, !tbaa !98
  %29 = icmp slt i32 %25, %12
  br i1 %29, label %.lr.ph, label %.loopexit

.lr.ph:                                           ; preds = %20, %41
  %30 = phi ptr [ %37, %41 ], [ %22, %20 ]
  %31 = phi i32 [ %42, %41 ], [ %25, %20 ]
  %32 = sext i32 %31 to i64
  %33 = getelementptr ptr, ptr %30, i64 %32
  %34 = getelementptr i8, ptr %33, i64 -8
  %35 = load ptr, ptr %34, align 8, !tbaa !89
  %36 = tail call ptr @av_frame_clone(ptr noundef %35) #12
  %37 = load ptr, ptr %21, align 8, !tbaa !37
  %38 = load i32, ptr %17, align 8, !tbaa !43
  %39 = sext i32 %38 to i64
  %40 = getelementptr inbounds ptr, ptr %37, i64 %39
  store ptr %36, ptr %40, align 8, !tbaa !89
  %.not66 = icmp eq ptr %36, null
  br i1 %.not66, label %.loopexit67, label %41

41:                                               ; preds = %.lr.ph
  %42 = add nsw i32 %38, 1
  store i32 %42, ptr %17, align 8, !tbaa !43
  %43 = load i32, ptr %11, align 8, !tbaa !36
  %44 = icmp slt i32 %42, %43
  br i1 %44, label %.lr.ph, label %.loopexit, !llvm.loop !141

45:                                               ; preds = %16
  %46 = getelementptr inbounds nuw i8, ptr %10, i64 68
  %47 = load i32, ptr %46, align 4, !tbaa !98
  %.not = icmp slt i32 %47, %12
  %48 = add nsw i32 %47, 1
  %49 = select i1 %.not, i32 %48, i32 %12
  store i32 %49, ptr %46, align 4, !tbaa !98
  %50 = getelementptr inbounds nuw i8, ptr %10, i64 168
  %51 = load ptr, ptr %50, align 8, !tbaa !37
  tail call void @av_frame_free(ptr noundef %51) #12
  %52 = load ptr, ptr %50, align 8, !tbaa !37
  %53 = getelementptr inbounds nuw i8, ptr %52, i64 8
  %54 = load i32, ptr %11, align 8, !tbaa !36
  %55 = add nsw i32 %54, -1
  %56 = sext i32 %55 to i64
  %57 = shl nsw i64 %56, 3
  tail call void @llvm.memmove.p0.p0.i64(ptr align 8 %52, ptr nonnull align 8 %53, i64 %57, i1 false)
  %58 = load ptr, ptr %50, align 8, !tbaa !37
  %59 = load i32, ptr %11, align 8, !tbaa !36
  %60 = sext i32 %59 to i64
  %61 = getelementptr ptr, ptr %58, i64 %60
  %62 = getelementptr i8, ptr %61, i64 -8
  store ptr %1, ptr %62, align 8, !tbaa !89
  br label %.loopexit

.loopexit:                                        ; preds = %41, %20, %45
  %63 = phi ptr [ %22, %20 ], [ %58, %45 ], [ %37, %41 ]
  %64 = getelementptr inbounds nuw i8, ptr %5, i64 128
  %65 = load i32, ptr %64, align 8, !tbaa !88
  %.not63 = icmp eq i32 %65, 0
  br i1 %.not63, label %71, label %66

66:                                               ; preds = %.loopexit
  %67 = load ptr, ptr %63, align 8, !tbaa !89
  %68 = tail call ptr @av_frame_clone(ptr noundef %67) #12
  %.not65 = icmp eq ptr %68, null
  br i1 %.not65, label %.loopexit67, label %69

69:                                               ; preds = %66
  %70 = tail call i32 @ff_filter_frame(ptr noundef %8, ptr noundef nonnull %68) #12
  br label %.loopexit67

71:                                               ; preds = %.loopexit
  %72 = getelementptr inbounds nuw i8, ptr %8, i64 40
  %73 = load i32, ptr %72, align 8, !tbaa !57
  %74 = getelementptr inbounds nuw i8, ptr %8, i64 44
  %75 = load i32, ptr %74, align 4, !tbaa !56
  %76 = tail call ptr @ff_get_video_buffer(ptr noundef %8, i32 noundef %73, i32 noundef %75) #12
  %.not64 = icmp eq ptr %76, null
  br i1 %.not64, label %.loopexit67, label %77

77:                                               ; preds = %71
  %78 = getelementptr inbounds nuw i8, ptr %10, i64 168
  %79 = load ptr, ptr %78, align 8, !tbaa !37
  %80 = load i32, ptr %17, align 8, !tbaa !43
  %81 = sext i32 %80 to i64
  %82 = getelementptr ptr, ptr %79, i64 %81
  %83 = getelementptr i8, ptr %82, i64 -8
  %84 = load ptr, ptr %83, align 8, !tbaa !89
  %85 = getelementptr inbounds nuw i8, ptr %84, i64 136
  %86 = load i64, ptr %85, align 8, !tbaa !91
  %87 = getelementptr inbounds nuw i8, ptr %76, i64 136
  store i64 %86, ptr %87, align 8, !tbaa !91
  %88 = getelementptr inbounds nuw i8, ptr %3, i64 8
  store ptr %76, ptr %88, align 8, !tbaa !97
  store ptr %79, ptr %3, align 8, !tbaa !95
  %89 = getelementptr inbounds nuw i8, ptr %10, i64 108
  %90 = load i32, ptr %89, align 4, !tbaa !69
  %91 = getelementptr inbounds nuw i8, ptr %10, i64 28
  %92 = load i32, ptr %91, align 4, !tbaa !59
  %. = tail call i32 @llvm.smin.i32(i32 %90, i32 %92)
  %93 = call i32 @ff_filter_execute(ptr noundef nonnull %5, ptr noundef nonnull @mix_frames, ptr noundef nonnull %3, ptr noundef null, i32 noundef %.) #12
  %94 = call i32 @ff_filter_frame(ptr noundef nonnull %8, ptr noundef nonnull %76) #12
  br label %.loopexit67

.loopexit67:                                      ; preds = %.lr.ph, %71, %66, %77, %69, %14
  %.0 = phi i32 [ %15, %14 ], [ %70, %69 ], [ %94, %77 ], [ -12, %66 ], [ -12, %71 ], [ -12, %.lr.ph ]
  call void @llvm.lifetime.end.p0(i64 16, ptr nonnull %3) #12
  ret i32 %.0
}